target datalayout = "e-m:e-p270:32:32-p271:32:32-p272:64:64-i64:64-i128:128-f80:128-n8:16:32:64-S128"
target triple = "x86_64-pc-linux-gnu"

@_ZN14duckdb_mbedtls14MbedTlsWrapper18AESGCMStateMBEDTLSD1Ev = hidden unnamed_addr alias void (ptr), ptr @_ZN14duckdb_mbedtls14MbedTlsWrapper18AESGCMStateMBEDTLSD2Ev

; Function Attrs: mustprogress nounwind uwtable
define hidden void @_ZN14duckdb_mbedtls14MbedTlsWrapper18AESGCMStateMBEDTLSD0Ev(ptr noundef nonnull align 8 dereferenceable(24) %0) unnamed_addr #4 align 2 {
  %2 = alloca ptr, align 8
  store ptr %0, ptr %2, align 8, !tbaa !38
  %3 = load ptr, ptr %2, align 8
  call void @_ZN14duckdb_mbedtls14MbedTlsWrapper18AESGCMStateMBEDTLSD1Ev(ptr noundef nonnull align 8 dereferenceable(24) %3) #13
  call void @_ZdlPv(ptr noundef %3) #17
  ret void
}